; Function Attrs: mustprogress uwtable
define hidden void @_Z12draw2DPointsN2cv3MatERSt6vectorINS_6Point_IfEESaIS3_EENS_7Scalar_IdEE(ptr noundef %0, ptr noundef nonnull readonly align 8 captures(none) dereferenceable(24) %1, ptr noundef %2) local_unnamed_addr #7 personality ptr @__gxx_personality_v0 {
  %4 = alloca %"class.cv::_InputOutputArray", align 8
  %5 = getelementptr inbounds nuw i8, ptr %1, i64 8
  %6 = load ptr, ptr %5, align 8, !tbaa !64
  %7 = load ptr, ptr %1, align 8, !tbaa !67
  %.not = icmp eq ptr %6, %7
  br i1 %.not, label %._crit_edge, label %.lr.ph

.lr.ph:                                           ; preds = %3
  %8 = getelementptr inbounds nuw i8, ptr %4, i64 8
  %9 = getelementptr inbounds nuw i8, ptr %4, i64 16
  br label %10

._crit_edge:                                      ; preds = %10, %3
  ret void

10:                                               ; preds = %.lr.ph, %10
  %11 = phi ptr [ %7, %.lr.ph ], [ %21, %10 ]
  %.07 = phi i64 [ 0, %.lr.ph ], [ %19, %10 ]
  %12 = getelementptr inbounds nuw %"class.cv::Point_.3", ptr %11, i64 %.07
  %13 = load float, ptr %12, align 4
  %.sroa_idx = getelementptr inbounds nuw i8, ptr %12, i64 4
  %14 = load float, ptr %.sroa_idx, align 4
  call void @llvm.lifetime.start.p0(i64 24, ptr nonnull %4) #25
  store i64 0, ptr %9, align 8
  store i32 50397184, ptr %4, align 8, !tbaa !30
  store ptr %0, ptr %8, align 8, !tbaa !34
  %15 = insertelement <4 x float> poison, float %13, i64 0
  %16 = call noundef i32 @llvm.x86.sse.cvtss2si(<4 x float> %15)
  %17 = insertelement <4 x float> poison, float %14, i64 0
  %18 = call noundef i32 @llvm.x86.sse.cvtss2si(<4 x float> %17)
  %.sroa.2.0.insert.ext.i = zext i32 %18 to i64
  %.sroa.2.0.insert.shift.i = shl nuw i64 %.sroa.2.0.insert.ext.i, 32
  %.sroa.0.0.insert.ext.i = zext i32 %16 to i64
  %.sroa.0.0.insert.insert.i = or disjoint i64 %.sroa.2.0.insert.shift.i, %.sroa.0.0.insert.ext.i
  call void @_ZN2cv6circleERKNS_17_InputOutputArrayENS_6Point_IiEEiRKNS_7Scalar_IdEEiii(ptr noundef nonnull align 8 dereferenceable(24) %4, i64 %.sroa.0.0.insert.insert.i, i32 noundef 4, ptr noundef nonnull align 8 dereferenceable(32) %2, i32 noundef -1, i32 noundef 8, i32 noundef 0)
  call void @llvm.lifetime.end.p0(i64 24, ptr nonnull %4) #25
  %19 = add nuw i64 %.07, 1
  %20 = load ptr, ptr %5, align 8, !tbaa !64
  %21 = load ptr, ptr %1, align 8, !tbaa !67
  %22 = ptrtoint ptr %20 to i64
  %23 = ptrtoint ptr %21 to i64
  %24 = sub i64 %22, %23
  %25 = ashr exact i64 %24, 3
  %26 = icmp ult i64 %19, %25
  br i1 %26, label %10, label %._crit_edge, !llvm.loop !96
}